; Function Attrs: mustprogress uwtable
define noundef i64 @casadi_c_n_in_id(i32 noundef %0) local_unnamed_addr #5 personality ptr @__gxx_personality_v0 {
  %2 = tail call noundef i32 @_Z11sanitize_idi(i32 noundef %0)
  %.not = icmp eq i32 %2, 0
  br i1 %.not, label %3, label %37

3:                                                ; preds = %1
  %4 = sext i32 %0 to i64
  %5 = load ptr, ptr getelementptr inbounds nuw (i8, ptr @_ZL25casadi_c_loaded_functions, i64 8), align 8, !tbaa !9
  %6 = load ptr, ptr @_ZL25casadi_c_loaded_functions, align 8, !tbaa !3
  %7 = ptrtoint ptr %5 to i64
  %8 = ptrtoint ptr %6 to i64
  %9 = sub i64 %7, %8
  %10 = ashr exact i64 %9, 3
  %.not.i.i = icmp ugt i64 %10, %4
  br i1 %.not.i.i, label %12, label %11

11:                                               ; preds = %3
  invoke void (ptr, ...) @_ZSt24__throw_out_of_range_fmtPKcz(ptr noundef nonnull @.str.20, i64 noundef %4, i64 noundef %10) #25
          to label %.noexc unwind label %15

.noexc:                                           ; preds = %11
  unreachable

12:                                               ; preds = %3
  %13 = getelementptr inbounds nuw %"class.casadi::Function", ptr %6, i64 %4
  %14 = invoke noundef i64 @_ZNK6casadi8Function4n_inEv(ptr noundef nonnull align 8 dereferenceable(8) %13)
          to label %37 unwind label %15

15:                                               ; preds = %11, %12
  %16 = landingpad { ptr, i32 }
          catch ptr @_ZTISt9exception
          catch ptr null
  %17 = extractvalue { ptr, i32 } %16, 0
  %18 = extractvalue { ptr, i32 } %16, 1
  %19 = tail call i32 @llvm.eh.typeid.for.p0(ptr nonnull @_ZTISt9exception) #23
  %20 = icmp eq i32 %18, %19
  %21 = tail call ptr @__cxa_begin_catch(ptr %17) #23
  br i1 %20, label %22, label %30

22:                                               ; preds = %15
  %23 = load ptr, ptr %21, align 8, !tbaa !32
  %24 = getelementptr inbounds nuw i8, ptr %23, i64 16
  %25 = load ptr, ptr %24, align 8
  %26 = tail call noundef ptr %25(ptr noundef nonnull align 8 dereferenceable(8) %21) #23
  %27 = invoke noundef nonnull align 8 dereferenceable(8) ptr @_ZStlsISt11char_traitsIcEERSt13basic_ostreamIcT_ES5_PKc(ptr noundef nonnull align 8 dereferenceable(8) @_ZSt4cerr, ptr noundef %26)
          to label %28 unwind label %35

28:                                               ; preds = %22
  %29 = invoke noundef nonnull align 8 dereferenceable(8) ptr @_ZSt4endlIcSt11char_traitsIcEERSt13basic_ostreamIT_T0_ES6_(ptr noundef nonnull align 8 dereferenceable(8) %27)
          to label %.sink.split unwind label %35

30:                                               ; preds = %15
  %31 = invoke noundef nonnull align 8 dereferenceable(8) ptr @_ZSt16__ostream_insertIcSt11char_traitsIcEERSt13basic_ostreamIT_T0_ES6_PKS3_l(ptr noundef nonnull align 8 dereferenceable(8) @_ZSt4cerr, ptr noundef nonnull @.str.8, i64 noundef 18)
          to label %_ZStlsISt11char_traitsIcEERSt13basic_ostreamIcT_ES5_PKc.exit unwind label %33

_ZStlsISt11char_traitsIcEERSt13basic_ostreamIcT_ES5_PKc.exit: ; preds = %30
  %32 = invoke noundef nonnull align 8 dereferenceable(8) ptr @_ZSt4endlIcSt11char_traitsIcEERSt13basic_ostreamIT_T0_ES6_(ptr noundef nonnull align 8 dereferenceable(8) @_ZSt4cerr)
          to label %.sink.split unwind label %33

33:                                               ; preds = %_ZStlsISt11char_traitsIcEERSt13basic_ostreamIcT_ES5_PKc.exit, %30
  %34 = landingpad { ptr, i32 }
          cleanup
  invoke void @__cxa_end_catch()
          to label %38 unwind label %39

35:                                               ; preds = %28, %22
  %36 = landingpad { ptr, i32 }
          cleanup
  invoke void @__cxa_end_catch()
          to label %38 unwind label %39

.sink.split:                                      ; preds = %_ZStlsISt11char_traitsIcEERSt13basic_ostreamIcT_ES5_PKc.exit, %28
  %.0.ph = phi i64 [ -2, %28 ], [ -3, %_ZStlsISt11char_traitsIcEERSt13basic_ostreamIcT_ES5_PKc.exit ]
  tail call void @__cxa_end_catch()
  br label %37

37:                                               ; preds = %.sink.split, %12, %1
  %.0 = phi i64 [ -1, %1 ], [ %14, %12 ], [ %.0.ph, %.sink.split ]
  ret i64 %.0

38:                                               ; preds = %35, %33
  %.pn = phi { ptr, i32 } [ %34, %33 ], [ %36, %35 ]
  resume { ptr, i32 } %.pn

39:                                               ; preds = %35, %33
  %40 = landingpad { ptr, i32 }
          catch ptr null
  %41 = extractvalue { ptr, i32 } %40, 0
  tail call void @__clang_call_terminate(ptr %41) #26
  unreachable
}